target datalayout = "e-m:e-p270:32:32-p271:32:32-p272:64:64-i64:64-i128:128-f80:128-n8:16:32:64-S128"
target triple = "x86_64-pc-linux-gnu"

; Function Attrs: inlinehint mustprogress nounwind uwtable
define linkonce_odr noundef zeroext i1 @_ZN4base16IsValidCodepointEj(i32 noundef %0) #4 comdat {
  %2 = alloca i32, align 4
  store i32 %0, ptr %2, align 4, !tbaa !25
  %3 = load i32, ptr %2, align 4, !tbaa !25
  %4 = icmp ult i32 %3, 55296
  br i1 %4, label %13, label %5

5:                                                ; preds = %1
  %6 = load i32, ptr %2, align 4, !tbaa !25
  %7 = icmp uge i32 %6, 57344
  br i1 %7, label %8, label %11

8:                                                ; preds = %5
  %9 = load i32, ptr %2, align 4, !tbaa !25
  %10 = icmp ule i32 %9, 1114111
  br label %11

11:                                               ; preds = %8, %5
  %12 = phi i1 [ false, %5 ], [ %10, %8 ]
  br label %13

13:                                               ; preds = %11, %1
  %14 = phi i1 [ true, %1 ], [ %12, %11 ]
  ret i1 %14
}

; Function Attrs: mustprogress uwtable
define noundef zeroext i1 @_ZN4base20ReadUnicodeCharacterEPKtiPiPj(ptr noundef %0, i32 noundef %1, ptr noundef %2, ptr noundef %3) #0 {
  %5 = alloca i1, align 1
  %6 = alloca ptr, align 8
  %7 = alloca i32, align 4
  %8 = alloca ptr, align 8
  %9 = alloca ptr, align 8
  store ptr %0, ptr %6, align 8, !tbaa !14
  store i32 %1, ptr %7, align 4, !tbaa !25
  store ptr %2, ptr %8, align 8, !tbaa !27
  store ptr %3, ptr %9, align 8, !tbaa !27
  %10 = load ptr, ptr %6, align 8, !tbaa !14
  %11 = load ptr, ptr %8, align 8, !tbaa !27
  %12 = load i32, ptr %11, align 4, !tbaa !25
  %13 = sext i32 %12 to i64
  %14 = getelementptr inbounds i16, ptr %10, i64 %13
  %15 = load i16, ptr %14, align 2, !tbaa !16
  %16 = zext i16 %15 to i32
  %17 = and i32 %16, -2048
  %18 = icmp eq i32 %17, 55296
  br i1 %18, label %19, label %70

19:                                               ; preds = %4
  %20 = load ptr, ptr %6, align 8, !tbaa !14
  %21 = load ptr, ptr %8, align 8, !tbaa !27
  %22 = load i32, ptr %21, align 4, !tbaa !25
  %23 = sext i32 %22 to i64
  %24 = getelementptr inbounds i16, ptr %20, i64 %23
  %25 = load i16, ptr %24, align 2, !tbaa !16
  %26 = zext i16 %25 to i32
  %27 = and i32 %26, 1024
  %28 = icmp eq i32 %27, 0
  br i1 %28, label %29, label %46

29:                                               ; preds = %19
  %30 = load ptr, ptr %8, align 8, !tbaa !27
  %31 = load i32, ptr %30, align 4, !tbaa !25
  %32 = add nsw i32 %31, 1
  %33 = load i32, ptr %7, align 4, !tbaa !25
  %34 = icmp sge i32 %32, %33
  br i1 %34, label %46, label %35

35:                                               ; preds = %29
  %36 = load ptr, ptr %6, align 8, !tbaa !14
  %37 = load ptr, ptr %8, align 8, !tbaa !27
  %38 = load i32, ptr %37, align 4, !tbaa !25
  %39 = add nsw i32 %38, 1
  %40 = sext i32 %39 to i64
  %41 = getelementptr inbounds i16, ptr %36, i64 %40
  %42 = load i16, ptr %41, align 2, !tbaa !16
  %43 = zext i16 %42 to i32
  %44 = and i32 %43, -1024
  %45 = icmp eq i32 %44, 56320
  br i1 %45, label %47, label %46

46:                                               ; preds = %35, %29, %19
  store i1 false, ptr %5, align 1
  br label %83

47:                                               ; preds = %35
  %48 = load ptr, ptr %6, align 8, !tbaa !14
  %49 = load ptr, ptr %8, align 8, !tbaa !27
  %50 = load i32, ptr %49, align 4, !tbaa !25
  %51 = sext i32 %50 to i64
  %52 = getelementptr inbounds i16, ptr %48, i64 %51
  %53 = load i16, ptr %52, align 2, !tbaa !16
  %54 = zext i16 %53 to i32
  %55 = shl i32 %54, 10
  %56 = load ptr, ptr %6, align 8, !tbaa !14
  %57 = load ptr, ptr %8, align 8, !tbaa !27
  %58 = load i32, ptr %57, align 4, !tbaa !25
  %59 = add nsw i32 %58, 1
  %60 = sext i32 %59 to i64
  %61 = getelementptr inbounds i16, ptr %56, i64 %60
  %62 = load i16, ptr %61, align 2, !tbaa !16
  %63 = zext i16 %62 to i32
  %64 = add nsw i32 %55, %63
  %65 = sub nsw i32 %64, 56613888
  %66 = load ptr, ptr %9, align 8, !tbaa !27
  store i32 %65, ptr %66, align 4, !tbaa !25
  %67 = load ptr, ptr %8, align 8, !tbaa !27
  %68 = load i32, ptr %67, align 4, !tbaa !25
  %69 = add nsw i32 %68, 1
  store i32 %69, ptr %67, align 4, !tbaa !25
  br label %79

70:                                               ; preds = %4
  %71 = load ptr, ptr %6, align 8, !tbaa !14
  %72 = load ptr, ptr %8, align 8, !tbaa !27
  %73 = load i32, ptr %72, align 4, !tbaa !25
  %74 = sext i32 %73 to i64
  %75 = getelementptr inbounds i16, ptr %71, i64 %74
  %76 = load i16, ptr %75, align 2, !tbaa !16
  %77 = zext i16 %76 to i32
  %78 = load ptr, ptr %9, align 8, !tbaa !27
  store i32 %77, ptr %78, align 4, !tbaa !25
  br label %79

79:                                               ; preds = %70, %47
  %80 = load ptr, ptr %9, align 8, !tbaa !27
  %81 = load i32, ptr %80, align 4, !tbaa !25
  %82 = call noundef zeroext i1 @_ZN4base16IsValidCodepointEj(i32 noundef %81)
  store i1 %82, ptr %5, align 1
  br label %83

83:                                               ; preds = %79, %46
  %84 = load i1, ptr %5, align 1
  ret i1 %84
}