; Function Attrs: mustprogress nofree norecurse nosync nounwind willreturn memory(argmem: readwrite) uwtable
define noundef zeroext i1 @_ZN4base20ReadUnicodeCharacterEPKtiPiPj(ptr noundef readonly captures(none) %0, i32 noundef %1, ptr noundef captures(none) %2, ptr noundef captures(none) %3) local_unnamed_addr #2 {
  %5 = load i32, ptr %2, align 4, !tbaa !27
  %6 = sext i32 %5 to i64
  %7 = getelementptr inbounds i16, ptr %0, i64 %6
  %8 = load i16, ptr %7, align 2, !tbaa !15
  %9 = zext i16 %8 to i32
  %10 = and i32 %9, 63488
  %11 = icmp eq i32 %10, 55296
  br i1 %11, label %12, label %30

12:                                               ; preds = %4
  %13 = and i32 %9, 1024
  %14 = icmp eq i32 %13, 0
  br i1 %14, label %15, label %37

15:                                               ; preds = %12
  %16 = add nsw i32 %5, 1
  %.not = icmp slt i32 %16, %1
  br i1 %.not, label %17, label %37

17:                                               ; preds = %15
  %18 = sext i32 %16 to i64
  %19 = getelementptr inbounds i16, ptr %0, i64 %18
  %20 = load i16, ptr %19, align 2, !tbaa !15
  %21 = zext i16 %20 to i32
  %22 = and i32 %21, 64512
  %23 = icmp eq i32 %22, 56320
  br i1 %23, label %24, label %37

24:                                               ; preds = %17
  %25 = shl nuw nsw i32 %9, 10
  %26 = add nsw i32 %25, -56613888
  %27 = add nuw nsw i32 %26, %21
  store i32 %27, ptr %3, align 4, !tbaa !27
  %28 = load i32, ptr %2, align 4, !tbaa !27
  %29 = add nsw i32 %28, 1
  store i32 %29, ptr %2, align 4, !tbaa !27
  %.pre = load i32, ptr %3, align 4, !tbaa !27
  br label %31

30:                                               ; preds = %4
  store i32 %9, ptr %3, align 4, !tbaa !27
  br label %31

31:                                               ; preds = %30, %24
  %32 = phi i32 [ %9, %30 ], [ %.pre, %24 ]
  %33 = icmp ult i32 %32, 55296
  %34 = add i32 %32, -57344
  %35 = icmp ult i32 %34, 1056768
  %36 = or i1 %33, %35
  br label %37

37:                                               ; preds = %12, %15, %17, %31
  %.0 = phi i1 [ %36, %31 ], [ false, %17 ], [ false, %15 ], [ false, %12 ]
  ret i1 %.0
}